target datalayout = "e-m:e-p270:32:32-p271:32:32-p272:64:64-i64:64-i128:128-f80:128-n8:16:32:64-S128"
target triple = "x86_64-pc-linux-gnu"

%struct.VduseVirtq = type { %struct.VduseRing, i16, i16, i16, i16, i8, i32, i32, i8, i32, ptr, ptr, i16, i64, ptr }
%struct.VduseRing = type { i32, i64, i64, i64, ptr, ptr, ptr }

@stderr = external global ptr, align 8
@.str.33 = private unnamed_addr constant [35 x i8] c"Failed to get vq[%d] iova mapping\0A\00", align 1

; Function Attrs: nounwind uwtable
define internal i32 @vduse_queue_update_vring(ptr noundef %0, i64 noundef %1, i64 noundef %2, i64 noundef %3) #0 {
  %5 = alloca i32, align 4
  %6 = alloca ptr, align 8
  %7 = alloca i64, align 8
  %8 = alloca i64, align 8
  %9 = alloca i64, align 8
  %10 = alloca ptr, align 8
  %11 = alloca i64, align 8
  %12 = alloca i32, align 4
  store ptr %0, ptr %6, align 8
  store i64 %1, ptr %7, align 8
  store i64 %2, ptr %8, align 8
  store i64 %3, ptr %9, align 8
  call void @llvm.lifetime.start.p0(i64 8, ptr %10) #13
  %13 = load ptr, ptr %6, align 8
  %14 = getelementptr inbounds nuw %struct.VduseVirtq, ptr %13, i32 0, i32 10
  %15 = load ptr, ptr %14, align 8
  store ptr %15, ptr %10, align 8
  call void @llvm.lifetime.start.p0(i64 8, ptr %11) #13
  store i64 0, ptr %11, align 8, !annotation !4
  store i64 16, ptr %11, align 8
  %16 = load ptr, ptr %10, align 8
  %17 = load i64, ptr %7, align 8
  %18 = call ptr @iova_to_va(ptr noundef %16, ptr noundef %11, i64 noundef %17)
  %19 = load ptr, ptr %6, align 8
  %20 = getelementptr inbounds nuw %struct.VduseVirtq, ptr %19, i32 0, i32 0
  %21 = getelementptr inbounds nuw %struct.VduseRing, ptr %20, i32 0, i32 4
  store ptr %18, ptr %21, align 8
  %22 = load i64, ptr %11, align 8
  %23 = icmp ne i64 %22, 16
  br i1 %23, label %24, label %25

24:                                               ; preds = %4
  store i32 -22, ptr %5, align 4
  store i32 1, ptr %12, align 4
  br label %70

25:                                               ; preds = %4
  store i64 4, ptr %11, align 8
  %26 = load ptr, ptr %10, align 8
  %27 = load i64, ptr %8, align 8
  %28 = call ptr @iova_to_va(ptr noundef %26, ptr noundef %11, i64 noundef %27)
  %29 = load ptr, ptr %6, align 8
  %30 = getelementptr inbounds nuw %struct.VduseVirtq, ptr %29, i32 0, i32 0
  %31 = getelementptr inbounds nuw %struct.VduseRing, ptr %30, i32 0, i32 5
  store ptr %28, ptr %31, align 8
  %32 = load i64, ptr %11, align 8
  %33 = icmp ne i64 %32, 4
  br i1 %33, label %34, label %35

34:                                               ; preds = %25
  store i32 -22, ptr %5, align 4
  store i32 1, ptr %12, align 4
  br label %70

35:                                               ; preds = %25
  store i64 4, ptr %11, align 8
  %36 = load ptr, ptr %10, align 8
  %37 = load i64, ptr %9, align 8
  %38 = call ptr @iova_to_va(ptr noundef %36, ptr noundef %11, i64 noundef %37)
  %39 = load ptr, ptr %6, align 8
  %40 = getelementptr inbounds nuw %struct.VduseVirtq, ptr %39, i32 0, i32 0
  %41 = getelementptr inbounds nuw %struct.VduseRing, ptr %40, i32 0, i32 6
  store ptr %38, ptr %41, align 8
  %42 = load i64, ptr %11, align 8
  %43 = icmp ne i64 %42, 4
  br i1 %43, label %44, label %45

44:                                               ; preds = %35
  store i32 -22, ptr %5, align 4
  store i32 1, ptr %12, align 4
  br label %70

45:                                               ; preds = %35
  %46 = load ptr, ptr %6, align 8
  %47 = getelementptr inbounds nuw %struct.VduseVirtq, ptr %46, i32 0, i32 0
  %48 = getelementptr inbounds nuw %struct.VduseRing, ptr %47, i32 0, i32 4
  %49 = load ptr, ptr %48, align 8
  %50 = icmp ne ptr %49, null
  br i1 %50, label %51, label %63

51:                                               ; preds = %45
  %52 = load ptr, ptr %6, align 8
  %53 = getelementptr inbounds nuw %struct.VduseVirtq, ptr %52, i32 0, i32 0
  %54 = getelementptr inbounds nuw %struct.VduseRing, ptr %53, i32 0, i32 5
  %55 = load ptr, ptr %54, align 8
  %56 = icmp ne ptr %55, null
  br i1 %56, label %57, label %63

57:                                               ; preds = %51
  %58 = load ptr, ptr %6, align 8
  %59 = getelementptr inbounds nuw %struct.VduseVirtq, ptr %58, i32 0, i32 0
  %60 = getelementptr inbounds nuw %struct.VduseRing, ptr %59, i32 0, i32 6
  %61 = load ptr, ptr %60, align 8
  %62 = icmp ne ptr %61, null
  br i1 %62, label %69, label %63

63:                                               ; preds = %57, %51, %45
  %64 = load ptr, ptr @stderr, align 8
  %65 = load ptr, ptr %6, align 8
  %66 = getelementptr inbounds nuw %struct.VduseVirtq, ptr %65, i32 0, i32 6
  %67 = load i32, ptr %66, align 4
  %68 = call i32 (ptr, ptr, ...) @fprintf(ptr noundef %64, ptr noundef @.str.33, i32 noundef %67) #13
  store i32 -22, ptr %5, align 4
  store i32 1, ptr %12, align 4
  br label %70

69:                                               ; preds = %57
  store i32 0, ptr %5, align 4
  store i32 1, ptr %12, align 4
  br label %70

70:                                               ; preds = %69, %63, %44, %34, %24
  call void @llvm.lifetime.end.p0(i64 8, ptr %11) #13
  call void @llvm.lifetime.end.p0(i64 8, ptr %10) #13
  %71 = load i32, ptr %5, align 4
  ret i32 %71
}