; Function Attrs: nounwind uwtable
define internal fastcc range(i32 -22, 1) i32 @vduse_queue_update_vring(ptr noundef captures(none) initializes((32, 40)) %0, i64 noundef %1, i64 noundef %2, i64 noundef %3) unnamed_addr #2 {
  %5 = alloca i64, align 8
  %6 = getelementptr inbounds nuw i8, ptr %0, i64 88
  %7 = load ptr, ptr %6, align 8
  call void @llvm.lifetime.start.p0(i64 8, ptr nonnull %5) #20
  store i64 16, ptr %5, align 8
  %8 = call fastcc ptr @iova_to_va(ptr noundef %7, ptr noundef %5, i64 noundef %1)
  %9 = getelementptr inbounds nuw i8, ptr %0, i64 32
  store ptr %8, ptr %9, align 8
  %10 = load i64, ptr %5, align 8
  %.not = icmp eq i64 %10, 16
  br i1 %.not, label %11, label %28

11:                                               ; preds = %4
  store i64 4, ptr %5, align 8
  %12 = call fastcc ptr @iova_to_va(ptr noundef %7, ptr noundef %5, i64 noundef %2)
  %13 = getelementptr inbounds nuw i8, ptr %0, i64 40
  store ptr %12, ptr %13, align 8
  %14 = load i64, ptr %5, align 8
  %.not14 = icmp eq i64 %14, 4
  br i1 %.not14, label %15, label %28

15:                                               ; preds = %11
  %16 = call fastcc ptr @iova_to_va(ptr noundef %7, ptr noundef %5, i64 noundef %3)
  %17 = getelementptr inbounds nuw i8, ptr %0, i64 48
  store ptr %16, ptr %17, align 8
  %18 = load i64, ptr %5, align 8
  %.not15 = icmp eq i64 %18, 4
  br i1 %.not15, label %19, label %28

19:                                               ; preds = %15
  %20 = load ptr, ptr %9, align 8
  %.not16 = icmp eq ptr %20, null
  br i1 %.not16, label %23, label %21

21:                                               ; preds = %19
  %22 = load ptr, ptr %13, align 8
  %.not17 = icmp eq ptr %22, null
  %.not18 = icmp eq ptr %16, null
  %or.cond = select i1 %.not17, i1 true, i1 %.not18
  br i1 %or.cond, label %23, label %28

23:                                               ; preds = %21, %19
  %24 = load ptr, ptr @stderr, align 8
  %25 = getelementptr inbounds nuw i8, ptr %0, i64 68
  %26 = load i32, ptr %25, align 4
  %27 = tail call i32 (ptr, ptr, ...) @fprintf(ptr noundef %24, ptr noundef nonnull @.str.33, i32 noundef %26) #22
  br label %28

28:                                               ; preds = %21, %15, %11, %4, %23
  %.0 = phi i32 [ -22, %23 ], [ -22, %4 ], [ -22, %11 ], [ -22, %15 ], [ 0, %21 ]
  call void @llvm.lifetime.end.p0(i64 8, ptr nonnull %5) #20
  ret i32 %.0
}